Certificate:
    Data:
        Version: 3 (0x2)
        Serial Number: 1 (0x1)
        Signature Algorithm: sha256WithRSAEncryption
        Issuer: DC=fr, DC=ygaudin, DC=vahempio, O=Vahempio Inc, OU=Vahempio Signing CA, CN=Vahempio PKI Signing CA
        Validity
            Not Before: Mar 30 15:04:15 2021 GMT
            Not After : Mar 30 15:04:15 2023 GMT
        Subject: DC=fr, DC=ygaudin, DC=vahempio, O=Vahempio Inc, CN=Alice ECILA
        Subject Public Key Info:
            Public Key Algorithm: rsaEncryption
                RSA Public-Key: (4096 bit)
                Modulus:
                    00:b5:95:8d:b6:d5:3b:f4:6f:e6:8f:08:c2:13:82:
                    22:9e:52:42:d8:3d:86:9c:b2:00:8f:62:4c:cf:d8:
                    64:9b:c9:4e:04:3b:89:26:5a:77:ef:4a:ed:ae:06:
                    e4:5b:a6:08:e8:ec:ec:76:62:45:64:34:5f:08:be:
                    56:a3:d6:51:c8:87:59:c9:04:7b:63:27:87:e1:27:
                    85:ea:ac:77:f7:17:63:65:99:4a:bc:c4:f9:7e:c2:
                    70:cf:69:29:92:ac:c6:03:ab:75:78:3c:dc:47:b0:
                    4b:3c:86:16:21:9e:2b:ad:9d:27:79:9d:5e:7b:dd:
                    cd:4d:d3:77:62:58:0c:ba:bc:d7:03:f1:52:0d:d9:
                    6f:42:4f:ba:db:1b:8b:c9:ad:0b:6e:17:8e:25:ba:
                    3c:f0:d1:91:ae:6e:bc:1d:80:cd:67:f0:2a:d4:46:
                    aa:89:5e:0f:15:b0:0f:d6:b4:82:bd:1e:2d:95:ba:
                    80:c5:f9:32:92:e9:2d:08:04:5a:19:dc:45:f2:4a:
                    fe:90:bc:6f:51:9b:ed:f0:f6:66:ed:be:fb:22:fd:
                    22:f3:29:6f:1c:d0:2f:8c:8c:56:c8:cb:e0:00:91:
                    92:bd:6b:13:6e:69:fd:ce:53:d9:88:2f:6b:c8:ca:
                    21:50:f0:5d:8e:2a:85:8a:4d:91:e2:75:ba:03:da:
                    e9:47:c6:53:d7:73:40:db:84:59:b2:5b:d0:64:e7:
                    30:b1:b1:d5:08:12:b0:59:50:93:a6:f1:96:3d:32:
                    ca:bd:e9:63:e0:4d:7b:c2:d6:34:e2:45:90:73:e4:
                    09:e3:aa:06:68:b8:5b:1c:c0:5b:0d:a8:ac:3a:ff:
                    a7:f7:a6:b8:8c:30:c3:77:06:12:58:8f:bf:21:e1:
                    76:ea:93:7f:fd:6d:e3:91:a2:a1:43:63:2b:d3:c5:
                    ba:78:3a:ee:f5:1e:fe:ff:94:87:39:73:50:30:28:
                    b2:cc:a3:1c:a3:a7:95:2b:c0:e8:0a:4d:12:ef:69:
                    4b:aa:93:ea:a2:ba:91:1a:f2:de:b1:71:d2:9e:9a:
                    69:45:61:2c:98:95:f7:be:4e:82:77:1f:f4:e4:c3:
                    35:95:a8:16:bc:c4:b9:69:66:16:33:ec:8c:b2:fe:
                    d0:fa:9e:09:02:16:51:d3:88:95:9d:a0:3b:18:29:
                    f4:44:a8:e7:bc:07:1a:d7:6b:15:76:0a:13:5c:4d:
                    5c:24:e5:0c:7f:31:56:be:ab:11:c9:b6:e3:f6:73:
                    92:fc:70:8d:1b:bf:43:7b:6b:ab:b1:14:34:22:46:
                    a5:2a:4a:ea:2b:48:5b:67:a8:72:c7:a1:83:54:63:
                    5d:43:f2:35:c7:10:16:26:59:f0:6f:9d:d3:ec:ee:
                    a9:36:cb
                Exponent: 65537 (0x10001)
        X509v3 extensions:
            X509v3 Key Usage: critical
                Digital Signature, Key Encipherment
            X509v3 Basic Constraints: 
                CA:FALSE
            X509v3 Extended Key Usage: 
                E-mail Protection, TLS Web Client Authentication
            X509v3 Subject Key Identifier: 
                E6:18:16:5C:1B:E7:3C:65:11:73:51:5A:F5:09:0A:90:9C:41:80:99
            X509v3 Authority Key Identifier: 
                keyid:3C:CE:77:92:12:F5:0D:55:C5:47:28:1F:E4:81:95:66:08:62:9D:41

            X509v3 Subject Alternative Name: 
                email:alice@ecila.localhost
    Signature Algorithm: sha256WithRSAEncryption
         30:f7:7a:23:d2:28:c2:b6:d8:dc:47:2a:a4:0a:e1:a2:1d:2b:
         e8:32:c4:7e:10:b0:d1:3f:95:0c:7b:46:c0:13:7c:9d:a6:be:
         3f:31:40:29:0d:31:57:90:d8:07:5a:6b:7f:9f:5e:f0:35:3e:
         66:2c:6b:42:d3:df:fd:be:bb:ed:94:f1:5f:ad:6f:b1:2d:59:
         e3:ed:e5:88:c3:2f:e5:e9:5c:04:11:5d:2b:fd:13:13:ac:6d:
         c4:63:d2:3a:ec:8d:7e:25:e4:d2:f3:9f:22:2e:5b:b9:63:27:
         5e:e2:ee:a3:c2:67:17:d2:2d:fc:4f:3d:44:9d:37:01:28:d2:
         76:af:a6:fa:e8:c0:81:8f:f3:cc:40:59:8c:02:67:12:19:65:
         28:a1:f4:aa:2d:81:31:53:4b:08:d4:a4:4a:3b:a9:49:ba:0f:
         9b:d2:e1:1a:d0:93:4f:63:3b:a8:4f:50:7e:ba:7c:8a:ad:ad:
         34:22:b3:41:9d:53:4b:52:07:b0:66:70:41:2a:b8:f1:6a:8c:
         3c:08:1a:de:58:7b:0a:f3:cc:85:98:c2:5b:86:db:12:62:80:
         34:c2:a0:41:7b:c2:b0:74:25:32:ae:36:23:e7:a3:de:71:56:
         a0:25:41:1f:16:ac:80:7e:75:c8:ee:14:e1:e9:a6:65:3a:10:
         d9:22:2c:15:cb:64:24:04:22:ab:d9:f6:93:5a:92:78:4b:f1:
         72:36:8c:6d:ee:52:31:25:f3:9c:04:80:48:e0:f5:b3:2f:98:
         51:c8:f9:7e:be:29:64:e2:a8:ad:c5:3b:6a:be:17:e1:90:95:
         92:5a:35:00:4d:1a:5e:e3:16:03:bf:40:2e:41:8c:4a:c8:bf:
         b6:c0:dd:49:79:00:9d:d5:c4:3c:44:71:df:7e:fc:b1:e0:3e:
         92:ea:8f:cb:9c:1a:1a:d6:0d:db:9e:be:51:df:c8:87:8a:4b:
         02:d8:a9:cf:42:e4:ad:78:67:6d:1d:9a:ac:c5:a0:4a:7d:eb:
         f9:d0:4c:0b:26:96:61:34:61:5d:91:8e:fc:df:18:de:2b:bb:
         54:5b:78:d2:bd:c3:f2:81:72:ad:8c:a8:c1:fe:3d:b1:1c:24:
         95:4d:7e:19:d0:a8:0a:22:14:86:1e:99:7a:51:52:5a:16:19:
         f5:11:ae:82:7b:3d:61:27:65:eb:c8:67:67:00:96:d3:b7:00:
         75:f9:e0:ca:32:b2:b1:64:75:e9:19:47:18:85:9f:6d:7c:b1:
         5a:8b:28:9d:f3:3f:42:73:01:d1:86:ba:35:b6:d7:0f:35:52:
         8d:89:ea:1f:b5:ac:48:20:24:a0:fd:da:fe:47:5c:86:88:40:
         9f:61:a3:66:fe:64:25:2b
-----BEGIN CERTIFICATE-----
MIIGLjCCBBagAwIBAgIBATANBgkqhkiG9w0BAQsFADCBnjESMBAGCgmSJomT8ixk
ARkWAmZyMRcwFQYKCZImiZPyLGQBGRYHeWdhdWRpbjEYMBYGCgmSJomT8ixkARkW
CHZhaGVtcGlvMRUwEwYDVQQKDAxWYWhlbXBpbyBJbmMxHDAaBgNVBAsME1ZhaGVt
cGlvIFNpZ25pbmcgQ0ExIDAeBgNVBAMMF1ZhaGVtcGlvIFBLSSBTaWduaW5nIENB
MB4XDTIxMDMzMDE1MDQxNVoXDTIzMDMzMDE1MDQxNVowdDESMBAGCgmSJomT8ixk
ARkWAmZyMRcwFQYKCZImiZPyLGQBGRYHeWdhdWRpbjEYMBYGCgmSJomT8ixkARkW
CHZhaGVtcGlvMRUwEwYDVQQKDAxWYWhlbXBpbyBJbmMxFDASBgNVBAMMC0FsaWNl
IEVDSUxBMIICIjANBgkqhkiG9w0BAQEFAAOCAg8AMIICCgKCAgEAtZWNttU79G/m
jwjCE4IinlJC2D2GnLIAj2JMz9hkm8lOBDuJJlp370rtrgbkW6YI6OzsdmJFZDRf
CL5Wo9ZRyIdZyQR7YyeH4SeF6qx39xdjZZlKvMT5fsJwz2kpkqzGA6t1eDzcR7BL
PIYWIZ4rrZ0neZ1ee93NTdN3YlgMurzXA/FSDdlvQk+62xuLya0LbheOJbo88NGR
rm68HYDNZ/Aq1EaqiV4PFbAP1rSCvR4tlbqAxfkykuktCARaGdxF8kr+kLxvUZvt
8PZm7b77Iv0i8ylvHNAvjIxWyMvgAJGSvWsTbmn9zlPZiC9ryMohUPBdjiqFik2R
4nW6A9rpR8ZT13NA24RZslvQZOcwsbHVCBKwWVCTpvGWPTLKvelj4E17wtY04kWQ
c+QJ46oGaLhbHMBbDaisOv+n96a4jDDDdwYSWI+/IeF26pN//W3jkaKhQ2Mr08W6
eDru9R7+/5SHOXNQMCiyzKMco6eVK8DoCk0S72lLqpPqorqRGvLesXHSnpppRWEs
mJX3vk6Cdx/05MM1lagWvMS5aWYWM+yMsv7Q+p4JAhZR04iVnaA7GCn0RKjnvAca
12sVdgoTXE1cJOUMfzFWvqsRybbj9nOS/HCNG79De2ursRQ0IkalKkrqK0hbZ6hy
x6GDVGNdQ/I1xxAWJlnwb53T7O6pNssCAwEAAaOBnzCBnDAOBgNVHQ8BAf8EBAMC
BaAwCQYDVR0TBAIwADAdBgNVHSUEFjAUBggrBgEFBQcDBAYIKwYBBQUHAwIwHQYD
VR0OBBYEFOYYFlwb5zxlEXNRWvUJCpCcQYCZMB8GA1UdIwQYMBaAFDzOd5IS9Q1V
xUcoH+SBlWYIYp1BMCAGA1UdEQQZMBeBFWFsaWNlQGVjaWxhLmxvY2FsaG9zdDAN
BgkqhkiG9w0BAQsFAAOCAgEAMPd6I9IowrbY3EcqpArhoh0r6DLEfhCw0T+VDHtG
wBN8naa+PzFAKQ0xV5DYB1prf59e8DU+ZixrQtPf/b677ZTxX61vsS1Z4+3liMMv
5elcBBFdK/0TE6xtxGPSOuyNfiXk0vOfIi5buWMnXuLuo8JnF9It/E89RJ03ASjS
dq+m+ujAgY/zzEBZjAJnEhllKKH0qi2BMVNLCNSkSjupSboPm9LhGtCTT2M7qE9Q
frp8iq2tNCKzQZ1TS1IHsGZwQSq48WqMPAga3lh7CvPMhZjCW4bbEmKANMKgQXvC
sHQlMq42I+ej3nFWoCVBHxasgH51yO4U4emmZToQ2SIsFctkJAQiq9n2k1qSeEvx
cjaMbe5SMSXznASASOD1sy+YUcj5fr4pZOKorcU7ar4X4ZCVklo1AE0aXuMWA79A
LkGMSsi/tsDdSXkAndXEPERx3378seA+kuqPy5waGtYN256+Ud/Ih4pLAtipz0Lk
rXhnbR2arMWgSn3r+dBMCyaWYTRhXZGO/N8Y3iu7VFt40r3D8oFyrYyowf49sRwk
lU1+GdCoCiIUhh6ZelFSWhYZ9RGugns9YSdl68hnZwCW07cAdfngyjKysWR16RlH
GIWfbXyxWosonfM/QnMB0Ya6NbbXDzVSjYnqH7WsSCAkoP3a/kdchohAn2GjZv5k
JSs=
-----END CERTIFICATE-----
