Certificate:
    Data:
        Version: 3 (0x2)
        Serial Number: 2 (0x2)
        Signature Algorithm: sha256WithRSAEncryption
        Issuer: DC=fr, DC=ygaudin, DC=vahempio, O=Vahempio Inc, OU=Vahempio Signing CA, CN=Vahempio PKI Signing CA
        Validity
            Not Before: Mar 30 15:06:12 2021 GMT
            Not After : Mar 30 15:06:12 2023 GMT
        Subject: DC=fr, DC=ygaudin, DC=vahempio, O=Vahempio Inc, CN=Bob BOB
        Subject Public Key Info:
            Public Key Algorithm: rsaEncryption
                RSA Public-Key: (4096 bit)
                Modulus:
                    00:ce:23:34:5e:fc:1f:62:45:90:ba:e4:32:a2:5e:
                    3f:83:98:54:9a:41:08:38:a4:f5:44:6e:6b:5d:fe:
                    59:f7:d0:75:63:84:57:07:32:dd:71:07:71:64:b9:
                    d5:58:fe:92:41:51:c6:1f:9b:d1:b7:64:ab:8b:b5:
                    5b:87:cd:1d:a2:53:9b:76:d1:42:84:a3:e9:8b:30:
                    f8:3f:80:69:87:44:99:e2:64:8c:0c:b9:a0:ba:ee:
                    2c:bc:91:49:e6:23:bf:63:d8:16:fb:1e:31:ff:4b:
                    2b:1e:26:b8:dd:a8:54:f4:ba:e6:9f:84:8c:0e:c6:
                    4e:dc:7b:6d:92:f0:8b:b6:92:19:01:f7:bf:9b:61:
                    18:f3:de:32:49:2e:75:11:ea:4d:20:a4:9f:01:ce:
                    bf:86:ee:6c:01:f1:16:02:90:2a:68:82:99:1b:1c:
                    4a:99:a6:82:98:fc:b0:60:1c:69:95:6d:46:81:38:
                    ec:5d:ab:d7:fa:e6:c2:84:43:9b:35:23:42:16:88:
                    61:8e:14:43:42:23:fa:88:90:02:de:90:76:4d:3a:
                    d4:8a:b4:ac:87:91:71:12:55:f8:18:30:74:4d:34:
                    d1:11:78:b8:aa:94:ef:9c:51:f3:0d:39:5e:52:84:
                    42:59:57:b3:bb:36:20:76:08:3d:9e:40:54:80:28:
                    97:02:ed:c8:b4:3f:c2:23:28:db:f9:ef:2f:e7:60:
                    88:31:99:bc:a0:62:cc:11:66:12:0f:28:28:8b:bf:
                    89:f8:d6:88:aa:19:65:94:42:ef:97:27:2e:d0:40:
                    ed:16:57:63:5f:33:91:3b:06:6b:dc:ad:e9:29:27:
                    a9:56:7c:64:6f:9e:0d:ad:b9:bf:f2:10:fe:fa:3e:
                    b9:f4:fd:6e:00:8f:a3:fd:40:fd:21:77:d3:30:5d:
                    3f:b1:60:b1:12:34:39:c6:00:a4:9f:d7:13:24:33:
                    84:41:4f:d8:cf:b3:45:08:4c:12:65:9b:a3:eb:e6:
                    9f:e9:da:47:5b:67:80:05:09:65:46:6a:74:7e:e3:
                    48:17:4b:16:d4:f5:7c:62:bf:eb:f7:ad:71:a0:9f:
                    83:a3:f8:df:20:c5:30:cc:74:ce:54:5a:a5:3a:0d:
                    cb:26:81:fd:b1:ff:0d:20:27:5d:d4:07:11:80:6f:
                    07:b5:89:ff:17:51:ca:5a:5e:2b:6d:83:2c:32:5a:
                    d6:14:b8:2f:a9:d4:91:fc:f7:59:f5:6a:a6:f5:a5:
                    65:85:3d:ca:c5:c7:86:5c:62:04:a1:28:37:dd:68:
                    a9:ce:b6:22:54:85:76:f9:94:64:80:13:c0:38:6d:
                    e7:83:f7:fc:68:c1:f2:9e:a1:dc:90:a0:a9:24:72:
                    ba:1d:27
                Exponent: 65537 (0x10001)
        X509v3 extensions:
            X509v3 Key Usage: critical
                Digital Signature, Key Encipherment
            X509v3 Basic Constraints: 
                CA:FALSE
            X509v3 Extended Key Usage: 
                E-mail Protection, TLS Web Client Authentication
            X509v3 Subject Key Identifier: 
                75:82:BC:B8:66:90:8D:D2:14:1A:75:2D:6C:29:2E:38:34:AF:BA:06
            X509v3 Authority Key Identifier: 
                keyid:3C:CE:77:92:12:F5:0D:55:C5:47:28:1F:E4:81:95:66:08:62:9D:41

            X509v3 Subject Alternative Name: 
                email:bob@bob.localhost
    Signature Algorithm: sha256WithRSAEncryption
         39:da:16:fb:eb:e1:d3:c7:1d:78:0b:f7:87:46:61:26:26:c7:
         17:7c:f7:4f:6d:31:6d:ae:1b:f9:a3:05:a7:83:98:4a:32:15:
         3d:98:0b:bb:5e:8d:8c:0f:59:4a:a8:ae:1f:28:45:4d:a7:f2:
         4b:39:43:c9:45:26:87:68:08:1f:cf:dc:f6:10:59:f6:69:dd:
         08:e1:48:86:23:73:95:68:79:8f:8d:de:72:58:da:96:a9:18:
         34:ca:47:0c:ed:de:34:69:b4:c9:43:0b:41:27:e2:bc:88:4b:
         2e:dc:aa:91:4f:84:c2:af:f2:ff:e8:05:d3:5e:4e:5f:f4:01:
         5c:16:f7:92:60:f4:34:58:58:47:f2:5f:18:67:56:93:55:a0:
         42:3f:9d:b9:04:f2:8f:6e:cb:92:3c:c4:6c:d8:24:a2:db:ef:
         b3:b7:d3:d9:4d:8f:b6:77:b0:ed:5f:6e:5c:4b:2f:63:32:bb:
         2c:50:93:eb:4a:e2:c8:88:eb:da:8c:21:1e:9d:db:83:e5:f6:
         2c:e7:cd:4a:6c:f1:4c:91:53:fb:b2:36:28:4a:1d:5d:38:97:
         5f:54:b5:d2:c8:81:a0:58:83:91:e8:5e:e5:0c:80:f9:63:7c:
         5f:20:76:cc:bd:59:8e:ac:0c:1d:cb:06:49:82:94:85:7f:60:
         14:fc:13:25:7c:6a:7c:a6:bc:30:22:6a:3b:62:58:60:a2:67:
         1d:60:39:da:f4:06:26:2d:a0:f9:39:d1:79:3e:f4:ef:76:d9:
         7c:78:02:d7:40:49:6a:c5:6b:51:78:24:8a:fb:b7:51:02:9f:
         3c:b8:e5:c2:a2:e6:80:d3:6e:25:49:91:0b:04:bb:17:92:6c:
         3e:31:88:6d:a2:90:ac:df:3e:5c:24:66:58:0d:1e:19:9d:c9:
         76:ef:9e:ed:ac:31:97:a2:3c:ec:a1:97:93:1e:c0:2f:9b:40:
         40:04:45:11:51:34:1b:03:92:71:53:f8:b8:d3:bd:61:6b:f2:
         d2:6f:e6:61:3a:3f:6b:53:6a:2f:84:53:4d:ce:b1:f9:e9:a7:
         0e:56:f5:c8:e5:5e:ee:1b:ba:a7:16:e2:b1:e8:83:4e:f6:c5:
         a3:b9:2d:84:f7:96:db:71:e8:f9:89:96:17:9a:88:ac:19:53:
         4d:a1:ec:67:6a:0c:42:01:d3:0b:0a:38:89:62:56:cb:9d:94:
         3c:d1:de:c1:97:8f:0e:22:2b:38:62:db:e0:45:c6:db:c7:44:
         9d:32:47:7b:2f:2a:9a:e6:e1:23:be:4f:db:ff:0b:97:b1:99:
         d9:fa:76:5d:1c:c5:6c:41:e9:4d:95:31:0d:2d:c4:38:ff:5c:
         1e:90:e7:90:a6:f4:13:a9
-----BEGIN CERTIFICATE-----
MIIGJjCCBA6gAwIBAgIBAjANBgkqhkiG9w0BAQsFADCBnjESMBAGCgmSJomT8ixk
ARkWAmZyMRcwFQYKCZImiZPyLGQBGRYHeWdhdWRpbjEYMBYGCgmSJomT8ixkARkW
CHZhaGVtcGlvMRUwEwYDVQQKDAxWYWhlbXBpbyBJbmMxHDAaBgNVBAsME1ZhaGVt
cGlvIFNpZ25pbmcgQ0ExIDAeBgNVBAMMF1ZhaGVtcGlvIFBLSSBTaWduaW5nIENB
MB4XDTIxMDMzMDE1MDYxMloXDTIzMDMzMDE1MDYxMlowcDESMBAGCgmSJomT8ixk
ARkWAmZyMRcwFQYKCZImiZPyLGQBGRYHeWdhdWRpbjEYMBYGCgmSJomT8ixkARkW
CHZhaGVtcGlvMRUwEwYDVQQKDAxWYWhlbXBpbyBJbmMxEDAOBgNVBAMMB0JvYiBC
T0IwggIiMA0GCSqGSIb3DQEBAQUAA4ICDwAwggIKAoICAQDOIzRe/B9iRZC65DKi
Xj+DmFSaQQg4pPVEbmtd/ln30HVjhFcHMt1xB3FkudVY/pJBUcYfm9G3ZKuLtVuH
zR2iU5t20UKEo+mLMPg/gGmHRJniZIwMuaC67iy8kUnmI79j2Bb7HjH/SyseJrjd
qFT0uuafhIwOxk7ce22S8Iu2khkB97+bYRjz3jJJLnUR6k0gpJ8Bzr+G7mwB8RYC
kCpogpkbHEqZpoKY/LBgHGmVbUaBOOxdq9f65sKEQ5s1I0IWiGGOFENCI/qIkALe
kHZNOtSKtKyHkXESVfgYMHRNNNEReLiqlO+cUfMNOV5ShEJZV7O7NiB2CD2eQFSA
KJcC7ci0P8IjKNv57y/nYIgxmbygYswRZhIPKCiLv4n41oiqGWWUQu+XJy7QQO0W
V2NfM5E7BmvcrekpJ6lWfGRvng2tub/yEP76Prn0/W4Aj6P9QP0hd9MwXT+xYLES
NDnGAKSf1xMkM4RBT9jPs0UITBJlm6Pr5p/p2kdbZ4AFCWVGanR+40gXSxbU9Xxi
v+v3rXGgn4Oj+N8gxTDMdM5UWqU6Dcsmgf2x/w0gJ13UBxGAbwe1if8XUcpaXitt
gywyWtYUuC+p1JH891n1aqb1pWWFPcrFx4ZcYgShKDfdaKnOtiJUhXb5lGSAE8A4
beeD9/xowfKeodyQoKkkcrodJwIDAQABo4GbMIGYMA4GA1UdDwEB/wQEAwIFoDAJ
BgNVHRMEAjAAMB0GA1UdJQQWMBQGCCsGAQUFBwMEBggrBgEFBQcDAjAdBgNVHQ4E
FgQUdYK8uGaQjdIUGnUtbCkuODSvugYwHwYDVR0jBBgwFoAUPM53khL1DVXFRygf
5IGVZghinUEwHAYDVR0RBBUwE4ERYm9iQGJvYi5sb2NhbGhvc3QwDQYJKoZIhvcN
AQELBQADggIBADnaFvvr4dPHHXgL94dGYSYmxxd8909tMW2uG/mjBaeDmEoyFT2Y
C7tejYwPWUqorh8oRU2n8ks5Q8lFJodoCB/P3PYQWfZp3QjhSIYjc5VoeY+N3nJY
2papGDTKRwzt3jRptMlDC0En4ryISy7cqpFPhMKv8v/oBdNeTl/0AVwW95Jg9DRY
WEfyXxhnVpNVoEI/nbkE8o9uy5I8xGzYJKLb77O309lNj7Z3sO1fblxLL2MyuyxQ
k+tK4siI69qMIR6d24Pl9iznzUps8UyRU/uyNihKHV04l19UtdLIgaBYg5HoXuUM
gPljfF8gdsy9WY6sDB3LBkmClIV/YBT8EyV8anymvDAiajtiWGCiZx1gOdr0BiYt
oPk50Xk+9O922Xx4AtdASWrFa1F4JIr7t1ECnzy45cKi5oDTbiVJkQsEuxeSbD4x
iG2ikKzfPlwkZlgNHhmdyXbvnu2sMZeiPOyhl5MewC+bQEAERRFRNBsDknFT+LjT
vWFr8tJv5mE6P2tTai+EU03Osfnppw5W9cjlXu4buqcW4rHog072xaO5LYT3lttx
6PmJlheaiKwZU02h7GdqDEIB0wsKOIliVsudlDzR3sGXjw4iKzhi2+BFxtvHRJ0y
R3svKprm4SO+T9v/C5exmdn6dl0cxWxB6U2VMQ0txDj/XB6Q55Cm9BOp
-----END CERTIFICATE-----
