Certificate:
    Data:
        Version: 3 (0x2)
        Serial Number: 1 (0x1)
        Signature Algorithm: sha256WithRSAEncryption
        Issuer: DC=fr, DC=ygaudin, DC=vahempio, O=Vahempio Inc, OU=Vahempio Root CA, CN=Vahempio PKI Root CA
        Validity
            Not Before: Mar 30 14:57:01 2021 GMT
            Not After : Mar 30 14:57:01 2031 GMT
        Subject: DC=fr, DC=ygaudin, DC=vahempio, O=Vahempio Inc, OU=Vahempio Root CA, CN=Vahempio PKI Root CA
        Subject Public Key Info:
            Public Key Algorithm: rsaEncryption
                RSA Public-Key: (4096 bit)
                Modulus:
                    00:bf:e2:7f:67:80:32:30:be:49:fd:8e:55:d3:89:
                    e0:30:73:f3:33:0e:76:0b:bf:97:21:58:df:c3:e6:
                    cd:f2:e9:d6:44:e1:9c:c3:20:83:e3:7f:51:4a:63:
                    4b:71:d4:5d:65:80:11:0e:30:85:11:ee:8d:04:13:
                    56:65:71:2d:df:b6:54:71:52:b4:52:e6:fc:b2:bc:
                    e1:9f:b9:a4:eb:17:2e:05:7c:57:fc:a0:19:92:21:
                    e6:da:2a:8f:64:0c:f7:97:0e:ae:40:a2:7a:ea:5b:
                    1e:8c:7d:9d:ab:1c:62:5d:c6:7c:d3:4c:6b:6a:99:
                    79:d5:92:70:1a:f0:a0:4a:b4:e3:27:66:bc:d3:13:
                    4c:ce:62:ea:aa:5b:0c:e8:c1:0e:de:76:d8:84:03:
                    4b:74:5e:0c:fc:95:1d:f7:11:e5:62:05:f8:5d:2b:
                    30:92:5c:b0:25:b4:30:a2:a4:05:db:4d:1d:25:30:
                    eb:5d:61:04:11:8c:8e:9d:c0:3c:88:96:0b:aa:c1:
                    5e:f8:ed:0b:0a:f7:c8:70:e8:98:97:d7:62:68:cc:
                    16:7b:b0:6f:4c:0f:8c:e2:18:ee:cd:1b:ff:66:5e:
                    ca:cd:c6:1f:a4:79:56:94:29:0a:18:c2:57:97:8f:
                    16:6c:d7:7b:20:d7:8d:fc:0a:71:c8:62:23:12:7d:
                    a6:00:75:a8:2f:f7:09:58:94:d9:15:bc:cb:99:e3:
                    3b:b0:00:70:73:1b:d5:6d:96:21:c3:50:3e:27:db:
                    d2:de:84:14:6f:cc:3e:f5:49:9f:e5:aa:fc:45:8d:
                    f0:cf:bf:22:1b:6c:50:90:0f:8c:15:24:96:20:06:
                    f0:52:ef:e7:ee:76:f7:bc:df:51:95:56:70:bd:92:
                    d3:46:96:b3:0c:59:79:ae:b0:7a:0b:a5:81:26:be:
                    04:a3:28:8e:35:6d:23:5a:d8:29:42:51:c8:da:d0:
                    1a:28:d2:82:7d:aa:73:2e:2a:67:bb:a3:ef:2d:53:
                    34:b7:a3:4b:ff:4a:ff:de:9a:bc:3c:1d:05:2b:da:
                    90:0b:cd:a9:86:53:a2:0b:ad:51:df:0f:86:5c:a0:
                    37:c2:c3:1a:7a:8e:0a:a9:e2:1c:8d:02:67:91:7d:
                    90:0b:45:92:06:67:2b:d2:96:28:85:0a:6a:8a:84:
                    f1:8d:7c:e3:32:d4:ff:3a:e5:6e:6a:1b:1a:e4:44:
                    0a:0d:77:ab:5b:f5:dc:82:f6:2c:ed:55:9f:eb:f8:
                    a2:44:5b:13:cc:e3:43:ad:83:50:15:68:ac:02:64:
                    8c:70:a0:86:35:c3:e0:bc:49:e0:37:33:c0:6f:3a:
                    49:63:36:55:7d:bf:ea:8a:29:40:7a:96:7f:c0:23:
                    05:2d:d5
                Exponent: 65537 (0x10001)
        X509v3 extensions:
            X509v3 Key Usage: critical
                Certificate Sign, CRL Sign
            X509v3 Basic Constraints: critical
                CA:TRUE
            X509v3 Subject Key Identifier: 
                72:1E:E8:E7:64:FF:82:44:6C:62:2E:16:F9:82:C9:87:46:8C:B2:33
            X509v3 Authority Key Identifier: 
                keyid:72:1E:E8:E7:64:FF:82:44:6C:62:2E:16:F9:82:C9:87:46:8C:B2:33

    Signature Algorithm: sha256WithRSAEncryption
         40:f1:0a:30:43:5f:85:fa:65:c0:26:f3:2c:23:f5:14:28:f6:
         7d:a1:74:16:50:a3:bc:b3:a9:3f:0b:60:d9:20:35:b3:f9:37:
         7d:a2:bd:9e:77:da:b7:c8:86:a1:79:20:0d:ee:0c:eb:e9:10:
         2c:f0:34:2b:92:e1:3c:e3:61:31:f2:cd:38:95:6d:6f:e9:60:
         3c:7f:f5:25:5d:35:1b:f5:c6:9e:ff:b2:95:37:f3:59:d0:69:
         a0:0a:2b:4d:bc:6a:0b:20:5c:5d:87:39:fb:20:b7:4b:be:e6:
         e5:2c:7a:57:f8:b6:a9:86:d0:cc:36:ff:81:42:95:fc:ee:ba:
         61:0c:35:04:a8:56:c5:e4:96:07:3c:c4:90:73:bd:ac:b8:54:
         98:7f:59:9a:4a:d4:a2:54:67:c9:2b:5d:23:16:59:24:c8:be:
         27:ef:de:74:0c:90:7e:9d:ab:92:80:ee:a4:61:05:28:87:7b:
         fe:3a:da:7e:f6:0e:98:c1:8e:de:7e:89:62:44:9f:57:ea:17:
         5e:b0:84:54:e8:d0:14:ca:04:b8:25:f5:ca:76:b8:e3:af:43:
         32:6d:cc:0b:fa:b2:59:e4:47:e2:21:4c:a3:b3:ea:07:72:1d:
         ce:0c:a1:a9:89:00:ab:c2:60:50:46:7d:0d:48:6f:2d:73:8b:
         e2:d5:2d:34:98:c4:d6:cf:51:cf:9f:a6:6e:1c:66:9c:cf:cd:
         dc:ab:a0:b1:59:d8:8e:fe:4d:5d:e0:3e:b6:56:75:9c:30:61:
         24:1b:2c:be:6f:68:86:bc:9c:9c:38:40:5f:1f:8b:ef:71:f5:
         ee:63:73:b6:d0:c4:c6:f3:99:92:a6:db:79:c1:df:af:3d:b0:
         f6:06:08:9f:a0:b3:b0:49:5f:9a:96:c2:ef:b1:ba:5b:ff:1a:
         71:f9:2d:eb:a7:1f:55:6f:c6:5c:b9:cf:82:b9:ed:b4:94:c0:
         29:4c:1c:0e:6c:8d:2f:25:15:91:77:6b:07:c3:07:82:c6:01:
         ba:c8:f1:d7:f5:7c:58:6c:e6:76:a6:2d:3c:ba:0f:80:49:e6:
         19:ef:ca:82:03:9b:5e:a6:1a:7f:a4:6e:99:b9:6f:dd:0c:3d:
         8a:25:46:93:31:76:ef:b9:e5:57:c8:9e:1b:db:09:81:34:fb:
         86:cc:e8:0e:77:2f:f6:5a:55:1c:81:d5:d2:bd:1a:2b:c0:f3:
         31:e4:f2:33:9a:b4:cb:97:50:25:88:34:ea:39:7a:91:90:e9:
         79:43:ba:43:f7:07:dc:46:16:0f:0f:d8:fc:55:e6:34:42:cc:
         a2:d3:bb:2b:35:ff:68:fb:9d:13:00:df:cf:f0:bc:b4:73:14:
         b7:c2:3b:d5:f2:c4:7b:88
-----BEGIN CERTIFICATE-----
MIIGEDCCA/igAwIBAgIBATANBgkqhkiG9w0BAQsFADCBmDESMBAGCgmSJomT8ixk
ARkWAmZyMRcwFQYKCZImiZPyLGQBGRYHeWdhdWRpbjEYMBYGCgmSJomT8ixkARkW
CHZhaGVtcGlvMRUwEwYDVQQKDAxWYWhlbXBpbyBJbmMxGTAXBgNVBAsMEFZhaGVt
cGlvIFJvb3QgQ0ExHTAbBgNVBAMMFFZhaGVtcGlvIFBLSSBSb290IENBMB4XDTIx
MDMzMDE0NTcwMVoXDTMxMDMzMDE0NTcwMVowgZgxEjAQBgoJkiaJk/IsZAEZFgJm
cjEXMBUGCgmSJomT8ixkARkWB3lnYXVkaW4xGDAWBgoJkiaJk/IsZAEZFgh2YWhl
bXBpbzEVMBMGA1UECgwMVmFoZW1waW8gSW5jMRkwFwYDVQQLDBBWYWhlbXBpbyBS
b290IENBMR0wGwYDVQQDDBRWYWhlbXBpbyBQS0kgUm9vdCBDQTCCAiIwDQYJKoZI
hvcNAQEBBQADggIPADCCAgoCggIBAL/if2eAMjC+Sf2OVdOJ4DBz8zMOdgu/lyFY
38PmzfLp1kThnMMgg+N/UUpjS3HUXWWAEQ4whRHujQQTVmVxLd+2VHFStFLm/LK8
4Z+5pOsXLgV8V/ygGZIh5toqj2QM95cOrkCieupbHox9nascYl3GfNNMa2qZedWS
cBrwoEq04ydmvNMTTM5i6qpbDOjBDt522IQDS3ReDPyVHfcR5WIF+F0rMJJcsCW0
MKKkBdtNHSUw611hBBGMjp3APIiWC6rBXvjtCwr3yHDomJfXYmjMFnuwb0wPjOIY
7s0b/2Zeys3GH6R5VpQpChjCV5ePFmzXeyDXjfwKcchiIxJ9pgB1qC/3CViU2RW8
y5njO7AAcHMb1W2WIcNQPifb0t6EFG/MPvVJn+Wq/EWN8M+/IhtsUJAPjBUkliAG
8FLv5+5297zfUZVWcL2S00aWswxZea6wegulgSa+BKMojjVtI1rYKUJRyNrQGijS
gn2qcy4qZ7uj7y1TNLejS/9K/96avDwdBSvakAvNqYZTogutUd8PhlygN8LDGnqO
CqniHI0CZ5F9kAtFkgZnK9KWKIUKaoqE8Y184zLU/zrlbmobGuRECg13q1v13IL2
LO1Vn+v4okRbE8zjQ62DUBVorAJkjHCghjXD4LxJ4DczwG86SWM2VX2/6oopQHqW
f8AjBS3VAgMBAAGjYzBhMA4GA1UdDwEB/wQEAwIBBjAPBgNVHRMBAf8EBTADAQH/
MB0GA1UdDgQWBBRyHujnZP+CRGxiLhb5gsmHRoyyMzAfBgNVHSMEGDAWgBRyHujn
ZP+CRGxiLhb5gsmHRoyyMzANBgkqhkiG9w0BAQsFAAOCAgEAQPEKMENfhfplwCbz
LCP1FCj2faF0FlCjvLOpPwtg2SA1s/k3faK9nnfat8iGoXkgDe4M6+kQLPA0K5Lh
PONhMfLNOJVtb+lgPH/1JV01G/XGnv+ylTfzWdBpoAorTbxqCyBcXYc5+yC3S77m
5Sx6V/i2qYbQzDb/gUKV/O66YQw1BKhWxeSWBzzEkHO9rLhUmH9ZmkrUolRnyStd
IxZZJMi+J+/edAyQfp2rkoDupGEFKId7/jrafvYOmMGO3n6JYkSfV+oXXrCEVOjQ
FMoEuCX1yna4469DMm3MC/qyWeRH4iFMo7PqB3IdzgyhqYkAq8JgUEZ9DUhvLXOL
4tUtNJjE1s9Rz5+mbhxmnM/N3KugsVnYjv5NXeA+tlZ1nDBhJBssvm9ohrycnDhA
Xx+L73H17mNzttDExvOZkqbbecHfrz2w9gYIn6CzsElfmpbC77G6W/8acfkt66cf
VW/GXLnPgrnttJTAKUwcDmyNLyUVkXdrB8MHgsYBusjx1/V8WGzmdqYtPLoPgEnm
Ge/KggObXqYaf6Rumblv3Qw9iiVGkzF277nlV8ieG9sJgTT7hszoDncv9lpVHIHV
0r0aK8DzMeTyM5q0y5dQJYg06jl6kZDpeUO6Q/cH3EYWDw/Y/FXmNELMotO7KzX/
aPudEwDfz/C8tHMUt8I71fLEe4g=
-----END CERTIFICATE-----
