Certificate:
    Data:
        Version: 3 (0x2)
        Serial Number: 3 (0x3)
        Signature Algorithm: sha256WithRSAEncryption
        Issuer: DC=fr, DC=ygaudin, DC=vahempio, O=Vahempio Inc, OU=Vahempio Signing CA, CN=Vahempio PKI Signing CA
        Validity
            Not Before: Mar 30 15:08:49 2021 GMT
            Not After : Mar 30 15:08:49 2023 GMT
        Subject: DC=fr, DC=ygaudin, DC=vahempio, O=Vahempio Inc, CN=Charlie EILRAHC
        Subject Public Key Info:
            Public Key Algorithm: rsaEncryption
                RSA Public-Key: (4096 bit)
                Modulus:
                    00:cb:3a:6d:26:24:8a:cb:fb:6d:06:6f:42:a6:c7:
                    b5:d9:ae:84:6b:a0:a0:68:8b:0e:b2:4f:35:58:88:
                    92:8c:7b:ba:15:26:6e:64:a4:44:3c:43:8c:b6:c0:
                    d0:bf:f1:43:b7:47:8c:58:a3:8f:d4:16:df:d1:ca:
                    b2:ff:cb:87:da:b8:e4:a1:49:33:10:48:ae:03:6f:
                    7e:93:a2:80:33:92:a9:77:81:12:01:87:32:bd:5f:
                    50:3f:37:49:01:64:4d:86:75:61:1b:e0:b1:a9:24:
                    4e:d5:d5:7a:d7:a7:0a:bf:45:d0:99:22:c7:a9:1b:
                    42:ec:8a:5a:04:3a:21:fe:25:12:c4:a7:54:b1:c4:
                    36:66:38:30:bf:41:3b:dd:ff:14:ab:10:91:ce:1a:
                    fb:7e:60:c5:95:7e:f0:d6:93:9c:f6:ba:c8:13:4b:
                    01:63:10:61:c4:cf:44:75:f9:3d:30:a4:71:e8:f3:
                    61:9e:fb:04:8e:dd:b1:91:b6:ad:91:fb:b7:03:0f:
                    3e:9b:75:e2:2d:2b:5a:cf:bf:8b:19:13:7f:8b:24:
                    e0:7a:1c:9a:dc:7c:dc:3b:e5:67:83:17:c6:b6:86:
                    e1:02:3c:75:7c:23:1d:24:32:44:c1:7e:68:4d:7e:
                    2a:cd:2e:47:4d:22:82:fe:2d:eb:81:ab:c3:81:da:
                    aa:74:b0:e6:c3:99:47:f7:af:f3:d9:fd:2e:e4:92:
                    d8:f8:2e:2b:67:ab:50:51:fc:d5:f8:18:56:64:b4:
                    1d:c8:c7:4d:71:b9:3f:6d:97:f9:bc:d1:50:92:07:
                    0f:70:22:bd:b6:db:39:d1:c1:5a:0f:88:40:36:5a:
                    cb:92:a4:aa:a6:d4:cc:3a:3f:54:54:4c:d8:a5:b3:
                    c4:7c:48:1c:ea:03:48:2f:ce:dd:73:34:df:46:de:
                    07:17:9e:a0:f8:b3:07:24:76:1e:cc:4f:c8:8c:f5:
                    7e:88:11:5a:a9:8c:cf:02:0c:68:44:fa:06:be:93:
                    d1:b8:5b:0a:2f:27:e8:2e:d1:ee:7c:78:ec:ab:03:
                    7e:43:2e:55:ec:e7:ed:4a:79:2b:18:83:f6:56:80:
                    07:6a:22:7c:37:ee:e9:7c:17:f3:30:95:e6:27:99:
                    9c:7a:57:5c:fe:21:04:2a:d1:b5:d7:9f:cb:22:17:
                    44:44:73:b2:9d:bb:6e:51:fb:0f:8f:54:fd:81:ce:
                    b1:12:41:ee:db:c0:d3:b9:e9:dc:83:18:ff:73:12:
                    f7:7b:ed:57:b7:95:4a:1e:ca:90:e4:f9:41:75:37:
                    3f:32:57:fa:65:fc:d2:05:50:e7:b5:59:4c:08:7b:
                    f4:4d:ed:6c:24:c1:10:a4:b9:e8:9d:56:ef:0f:95:
                    9a:36:f7
                Exponent: 65537 (0x10001)
        X509v3 extensions:
            X509v3 Key Usage: critical
                Digital Signature, Key Encipherment
            X509v3 Basic Constraints: 
                CA:FALSE
            X509v3 Extended Key Usage: 
                E-mail Protection, TLS Web Client Authentication
            X509v3 Subject Key Identifier: 
                A0:92:14:FD:E0:07:F3:92:DC:3B:8B:25:FB:EF:B2:23:E1:42:42:50
            X509v3 Authority Key Identifier: 
                keyid:3C:CE:77:92:12:F5:0D:55:C5:47:28:1F:E4:81:95:66:08:62:9D:41

            X509v3 Subject Alternative Name: 
                email:charlie@eilrahc.localhost
    Signature Algorithm: sha256WithRSAEncryption
         31:2c:4b:3c:52:78:63:0d:ec:e3:e7:22:ce:ad:c0:ef:02:b2:
         a5:54:8d:c8:4c:f6:71:8d:8e:a0:6c:ac:c7:16:10:0f:75:34:
         ea:45:d3:98:3a:4f:19:9d:a1:98:8f:df:67:d8:1a:d6:e3:5b:
         06:61:52:c5:92:30:7f:b1:5a:a8:12:dc:b9:64:50:6b:d9:72:
         f5:58:5e:fe:9e:55:73:52:8e:de:e6:8a:fb:3c:27:50:40:d7:
         64:f6:2b:7a:de:52:fb:88:ad:90:ab:ea:0b:7d:27:97:36:d7:
         a7:4d:ff:2f:68:67:d6:ef:a9:99:5e:de:50:dc:f7:69:01:d8:
         a0:8c:93:30:0a:cc:a9:71:d3:16:bc:d5:90:bb:c6:bc:bc:79:
         fd:44:e9:1c:bb:75:93:94:85:ed:06:66:a6:cc:04:e1:1e:4e:
         42:7f:ae:df:eb:c2:e3:46:f2:09:be:8e:5c:68:ee:02:b6:0c:
         53:c7:15:20:9e:e9:b9:31:a1:be:5a:13:15:cb:9c:90:97:a9:
         e2:c8:1b:9d:07:9b:45:40:2a:40:f1:e0:74:ec:ee:36:22:64:
         8d:1d:68:08:64:32:62:70:e6:ef:0f:09:b7:24:69:7d:37:3f:
         39:37:1e:d9:02:eb:b9:7c:0e:81:12:a7:b8:8c:08:52:30:55:
         97:09:a9:96:9f:c3:3f:dc:c7:d2:6e:db:eb:13:a2:82:2b:ec:
         68:76:5a:2b:15:36:0a:b7:8f:e1:80:fe:a3:dc:cd:2a:bb:49:
         6e:26:8a:9a:e6:21:e6:9b:bc:0a:b7:09:26:5d:43:58:0c:39:
         7d:6e:ff:cd:b8:16:53:2c:52:a5:b6:6f:60:77:53:5a:28:31:
         01:bd:3c:b7:dc:ed:88:92:a8:07:82:68:52:1d:bd:ae:b9:89:
         9b:e0:af:91:cd:55:57:4d:a6:06:79:fe:b1:58:d1:e3:48:e2:
         95:69:cc:d8:26:60:dc:08:2c:ec:77:8b:c6:57:87:3e:94:75:
         c2:26:bd:13:1f:9a:78:55:80:36:73:6c:aa:26:bc:52:a3:39:
         fe:c5:52:c7:6a:0e:3c:d1:ed:6c:03:fd:57:af:d5:a2:39:0c:
         61:ed:40:ea:3d:88:69:7d:8a:a7:55:a6:45:44:2c:c8:5b:65:
         96:19:da:df:dd:62:8c:01:81:e8:8e:8d:57:7e:41:5b:c7:4d:
         43:6c:02:33:86:9b:ad:08:84:20:39:d0:40:68:1a:ae:84:ab:
         6d:3a:33:46:b2:8b:89:88:ee:df:4f:66:ab:00:64:1c:fd:f5:
         31:79:13:cc:f6:53:dc:21:11:f9:a3:2b:74:c7:a7:cc:f9:7f:
         7e:51:d3:f2:2c:e2:78:9e
-----BEGIN CERTIFICATE-----
MIIGNjCCBB6gAwIBAgIBAzANBgkqhkiG9w0BAQsFADCBnjESMBAGCgmSJomT8ixk
ARkWAmZyMRcwFQYKCZImiZPyLGQBGRYHeWdhdWRpbjEYMBYGCgmSJomT8ixkARkW
CHZhaGVtcGlvMRUwEwYDVQQKDAxWYWhlbXBpbyBJbmMxHDAaBgNVBAsME1ZhaGVt
cGlvIFNpZ25pbmcgQ0ExIDAeBgNVBAMMF1ZhaGVtcGlvIFBLSSBTaWduaW5nIENB
MB4XDTIxMDMzMDE1MDg0OVoXDTIzMDMzMDE1MDg0OVoweDESMBAGCgmSJomT8ixk
ARkWAmZyMRcwFQYKCZImiZPyLGQBGRYHeWdhdWRpbjEYMBYGCgmSJomT8ixkARkW
CHZhaGVtcGlvMRUwEwYDVQQKDAxWYWhlbXBpbyBJbmMxGDAWBgNVBAMMD0NoYXJs
aWUgRUlMUkFIQzCCAiIwDQYJKoZIhvcNAQEBBQADggIPADCCAgoCggIBAMs6bSYk
isv7bQZvQqbHtdmuhGugoGiLDrJPNViIkox7uhUmbmSkRDxDjLbA0L/xQ7dHjFij
j9QW39HKsv/Lh9q45KFJMxBIrgNvfpOigDOSqXeBEgGHMr1fUD83SQFkTYZ1YRvg
sakkTtXVetenCr9F0Jkix6kbQuyKWgQ6If4lEsSnVLHENmY4ML9BO93/FKsQkc4a
+35gxZV+8NaTnPa6yBNLAWMQYcTPRHX5PTCkcejzYZ77BI7dsZG2rZH7twMPPpt1
4i0rWs+/ixkTf4sk4Hocmtx83DvlZ4MXxraG4QI8dXwjHSQyRMF+aE1+Ks0uR00i
gv4t64Grw4HaqnSw5sOZR/ev89n9LuSS2PguK2erUFH81fgYVmS0HcjHTXG5P22X
+bzRUJIHD3AivbbbOdHBWg+IQDZay5KkqqbUzDo/VFRM2KWzxHxIHOoDSC/O3XM0
30beBxeeoPizByR2HsxPyIz1fogRWqmMzwIMaET6Br6T0bhbCi8n6C7R7nx47KsD
fkMuVezn7Up5KxiD9laAB2oifDfu6XwX8zCV5ieZnHpXXP4hBCrRtdefyyIXRERz
sp27blH7D49U/YHOsRJB7tvA07np3IMY/3MS93vtV7eVSh7KkOT5QXU3PzJX+mX8
0gVQ57VZTAh79E3tbCTBEKS56J1W7w+Vmjb3AgMBAAGjgaMwgaAwDgYDVR0PAQH/
BAQDAgWgMAkGA1UdEwQCMAAwHQYDVR0lBBYwFAYIKwYBBQUHAwQGCCsGAQUFBwMC
MB0GA1UdDgQWBBSgkhT94Afzktw7iyX777Ij4UJCUDAfBgNVHSMEGDAWgBQ8zneS
EvUNVcVHKB/kgZVmCGKdQTAkBgNVHREEHTAbgRljaGFybGllQGVpbHJhaGMubG9j
YWxob3N0MA0GCSqGSIb3DQEBCwUAA4ICAQAxLEs8UnhjDezj5yLOrcDvArKlVI3I
TPZxjY6gbKzHFhAPdTTqRdOYOk8ZnaGYj99n2BrW41sGYVLFkjB/sVqoEty5ZFBr
2XL1WF7+nlVzUo7e5or7PCdQQNdk9it63lL7iK2Qq+oLfSeXNtenTf8vaGfW76mZ
Xt5Q3PdpAdigjJMwCsypcdMWvNWQu8a8vHn9ROkcu3WTlIXtBmamzAThHk5Cf67f
68LjRvIJvo5caO4CtgxTxxUgnum5MaG+WhMVy5yQl6niyBudB5tFQCpA8eB07O42
ImSNHWgIZDJicObvDwm3JGl9Nz85Nx7ZAuu5fA6BEqe4jAhSMFWXCamWn8M/3MfS
btvrE6KCK+xodlorFTYKt4/hgP6j3M0qu0luJoqa5iHmm7wKtwkmXUNYDDl9bv/N
uBZTLFKltm9gd1NaKDEBvTy33O2IkqgHgmhSHb2uuYmb4K+RzVVXTaYGef6xWNHj
SOKVaczYJmDcCCzsd4vGV4c+lHXCJr0TH5p4VYA2c2yqJrxSozn+xVLHag480e1s
A/1Xr9WiOQxh7UDqPYhpfYqnVaZFRCzIW2WWGdrf3WKMAYHojo1XfkFbx01DbAIz
hputCIQgOdBAaBquhKttOjNGsouJiO7fT2arAGQc/fUxeRPM9lPcIRH5oyt0x6fM
+X9+UdPyLOJ4ng==
-----END CERTIFICATE-----
