Certificate:
    Data:
        Version: 3 (0x2)
        Serial Number: 4 (0x4)
        Signature Algorithm: sha256WithRSAEncryption
        Issuer: DC=fr, DC=ygaudin, DC=vahempio, O=Vahempio Inc, OU=Vahempio Signing CA, CN=Vahempio PKI Signing CA
        Validity
            Not Before: Mar 31 08:18:04 2021 GMT
            Not After : Mar 31 08:18:04 2023 GMT
        Subject: DC=fr, DC=ygaudin, DC=vahempio, O=Vahempio Inc, CN=localhost
        Subject Public Key Info:
            Public Key Algorithm: rsaEncryption
                RSA Public-Key: (4096 bit)
                Modulus:
                    00:bd:45:09:43:a3:22:7f:8f:e5:c1:08:d6:62:8a:
                    e6:f0:50:2a:df:90:08:da:1b:56:23:ec:de:d4:8d:
                    6d:1d:69:45:9f:59:9f:ff:2a:6e:8a:1b:de:eb:70:
                    76:6d:27:39:16:08:ef:5d:7a:76:08:d2:4c:e1:96:
                    33:b9:87:ab:a8:ec:c4:18:56:54:2f:34:37:c0:ce:
                    6c:83:ec:fd:b7:45:c4:f7:76:e0:b6:10:ab:77:1e:
                    57:08:db:3f:4a:2e:29:bc:36:55:2f:e8:c1:f3:f0:
                    b6:46:43:d5:59:81:b9:d9:c4:74:db:ca:ae:a6:03:
                    4c:c1:4e:25:2a:5a:c7:ee:55:5c:21:40:a3:11:11:
                    08:ff:c1:c2:cb:3f:5f:65:e6:06:9f:e7:c0:dd:63:
                    c4:8b:1d:06:59:78:2d:10:f0:b8:7d:d3:3f:0b:80:
                    e9:81:74:3a:71:4d:45:fa:49:2f:cb:1c:a5:2e:3f:
                    a2:41:bb:32:45:ec:8b:74:4d:ab:7a:5b:ad:85:df:
                    c2:4f:d6:2b:73:de:eb:ca:b7:4e:5a:84:27:ed:25:
                    e9:8d:54:29:15:91:40:33:ca:c1:19:50:ce:56:b7:
                    13:7d:40:ae:7a:b2:a8:a4:ba:2c:2d:4c:30:47:73:
                    37:c4:c5:58:00:a3:88:37:fd:b1:4c:92:f9:bc:b8:
                    27:10:cd:9a:e9:86:f1:e0:b4:12:35:b3:88:f4:f6:
                    48:a4:ce:ee:0d:2d:86:65:f1:b7:6d:77:91:bd:b0:
                    ee:cb:f3:c2:e9:9c:4d:85:15:be:00:1c:19:01:a4:
                    e9:fc:b9:b3:9d:c1:cf:51:af:db:f8:c5:c7:78:44:
                    16:3f:96:f7:72:2c:64:3e:ac:8b:12:04:e0:cb:db:
                    6f:df:e9:58:a0:c1:c0:b1:4e:c2:f3:50:3b:35:2b:
                    f5:24:b7:fa:60:59:bc:ab:c4:d1:05:bf:7a:14:3b:
                    d4:3b:34:2c:5b:1c:ba:af:2f:9e:3d:ca:87:62:45:
                    c9:5e:05:96:82:5e:af:95:dd:7e:eb:fd:9b:5c:fa:
                    52:1f:ee:7d:23:7f:b1:b2:e3:a2:43:0f:1f:20:9e:
                    1b:20:4b:62:af:15:3b:50:df:ce:f8:e3:ca:21:d5:
                    af:f9:30:9b:4e:80:e1:d7:36:7f:66:d9:04:c2:a7:
                    f8:2c:9f:7b:a1:55:60:af:37:95:f6:ff:89:b9:a5:
                    25:d8:05:e4:a8:49:a3:12:e6:76:39:66:fc:7e:ca:
                    c5:90:bc:2b:77:ba:dd:47:b8:4d:ee:51:0c:1d:9d:
                    40:3b:b5:12:f1:0f:0d:fa:08:f8:0b:54:6f:e7:88:
                    0a:9b:ae:80:ac:7a:f6:b8:69:4e:a7:83:f0:00:00:
                    34:98:45
                Exponent: 65537 (0x10001)
        X509v3 extensions:
            X509v3 Key Usage: critical
                Digital Signature, Key Encipherment
            X509v3 Basic Constraints: 
                CA:FALSE
            X509v3 Extended Key Usage: 
                TLS Web Server Authentication, TLS Web Client Authentication
            X509v3 Subject Key Identifier: 
                0E:68:CA:B2:AA:EA:53:E5:CD:BB:2F:4D:08:AF:3E:11:90:BB:D8:23
            X509v3 Authority Key Identifier: 
                keyid:3C:CE:77:92:12:F5:0D:55:C5:47:28:1F:E4:81:95:66:08:62:9D:41

            X509v3 Subject Alternative Name: 
                DNS:traefik.localhost, DNS:tls.localhost, DNS:mtls.localhost, DNS:api.mtls.localhost
    Signature Algorithm: sha256WithRSAEncryption
         45:70:88:83:ae:bb:a8:2e:28:12:f0:54:7a:e3:36:71:50:2f:
         92:a9:86:10:0c:f7:19:20:ad:c4:8d:b8:a6:02:b7:62:27:30:
         73:a6:40:2b:93:ca:91:bc:2f:96:db:95:d8:45:04:61:96:93:
         a1:07:0a:ba:87:0a:da:03:13:2d:81:a8:3b:aa:de:a1:df:9b:
         bf:e1:19:f2:81:4e:38:b3:93:52:77:85:0b:39:f2:30:c2:44:
         46:fc:f0:a6:94:0c:7f:21:74:32:a0:7e:81:46:d3:a0:44:d4:
         3f:b5:a8:3e:0b:f8:85:d1:d8:4e:23:d7:ad:e4:e4:61:fb:31:
         ab:f3:8e:10:2b:59:f7:36:a9:29:fe:58:e5:8f:97:1f:9e:d9:
         08:0a:e3:2d:5e:85:62:54:80:88:f3:ca:9e:75:16:3d:f6:c2:
         2f:34:32:15:d9:ae:b8:51:83:38:ce:64:01:ea:b9:db:60:ff:
         cd:2e:b2:75:25:e2:23:cd:9d:f5:73:aa:ac:28:b6:59:44:f0:
         b5:5c:81:c9:27:e1:e5:72:f3:3e:9b:33:31:d1:b2:e4:f7:31:
         aa:26:56:0d:29:b5:61:ca:db:d3:77:a7:e2:0c:19:8d:02:15:
         62:e2:b7:c6:04:a3:32:57:30:29:1e:7a:a5:13:bf:88:2e:bd:
         41:d1:32:5f:af:70:f2:06:ed:c6:d5:67:5c:81:6f:2f:cc:eb:
         3d:8e:a5:09:a3:73:2e:3a:05:b5:4f:40:6a:ff:11:7b:89:28:
         f8:fd:cc:1b:e9:6f:17:1d:58:d4:e1:94:f9:27:9c:37:76:9c:
         c4:7f:03:5a:cf:fd:43:6c:8e:c1:2e:61:33:52:1c:45:d4:7e:
         9a:be:8e:34:25:41:9e:9d:5b:36:27:86:84:bc:95:42:5a:35:
         46:2f:d6:63:d3:e9:d2:51:8c:e7:96:a0:9c:f7:84:f5:84:7a:
         99:78:ff:0f:5a:e6:b9:42:1d:55:64:c5:56:61:e4:44:b2:1f:
         c7:24:a2:9f:29:ce:29:2a:66:bd:b5:bc:69:bf:7c:d5:7e:58:
         7a:3e:f5:34:65:93:40:75:1b:f0:8b:0f:b3:cb:e3:2b:15:c2:
         ab:54:48:b6:d8:61:78:1f:fe:66:31:74:de:b6:4f:99:b3:a0:
         db:52:16:39:86:d9:1c:66:2b:2c:ec:1a:ea:78:3d:99:5b:68:
         ed:ae:c5:56:cb:c5:87:43:7f:83:0b:61:39:47:82:cb:1f:e5:
         1f:44:21:48:3d:5b:b2:70:95:e6:61:6a:d4:3f:06:62:4c:ef:
         74:5f:86:ce:eb:4b:cc:2e:f6:90:cb:6b:d2:ea:7b:1a:e2:aa:
         6e:80:df:5f:fa:5d:18:45
-----BEGIN CERTIFICATE-----
MIIGWzCCBEOgAwIBAgIBBDANBgkqhkiG9w0BAQsFADCBnjESMBAGCgmSJomT8ixk
ARkWAmZyMRcwFQYKCZImiZPyLGQBGRYHeWdhdWRpbjEYMBYGCgmSJomT8ixkARkW
CHZhaGVtcGlvMRUwEwYDVQQKDAxWYWhlbXBpbyBJbmMxHDAaBgNVBAsME1ZhaGVt
cGlvIFNpZ25pbmcgQ0ExIDAeBgNVBAMMF1ZhaGVtcGlvIFBLSSBTaWduaW5nIENB
MB4XDTIxMDMzMTA4MTgwNFoXDTIzMDMzMTA4MTgwNFowcjESMBAGCgmSJomT8ixk
ARkWAmZyMRcwFQYKCZImiZPyLGQBGRYHeWdhdWRpbjEYMBYGCgmSJomT8ixkARkW
CHZhaGVtcGlvMRUwEwYDVQQKDAxWYWhlbXBpbyBJbmMxEjAQBgNVBAMMCWxvY2Fs
aG9zdDCCAiIwDQYJKoZIhvcNAQEBBQADggIPADCCAgoCggIBAL1FCUOjIn+P5cEI
1mKK5vBQKt+QCNobViPs3tSNbR1pRZ9Zn/8qboob3utwdm0nORYI7116dgjSTOGW
M7mHq6jsxBhWVC80N8DObIPs/bdFxPd24LYQq3ceVwjbP0ouKbw2VS/owfPwtkZD
1VmBudnEdNvKrqYDTMFOJSpax+5VXCFAoxERCP/Bwss/X2XmBp/nwN1jxIsdBll4
LRDwuH3TPwuA6YF0OnFNRfpJL8scpS4/okG7MkXsi3RNq3pbrYXfwk/WK3Pe68q3
TlqEJ+0l6Y1UKRWRQDPKwRlQzla3E31ArnqyqKS6LC1MMEdzN8TFWACjiDf9sUyS
+by4JxDNmumG8eC0EjWziPT2SKTO7g0thmXxt213kb2w7svzwumcTYUVvgAcGQGk
6fy5s53Bz1Gv2/jFx3hEFj+W93IsZD6sixIE4Mvbb9/pWKDBwLFOwvNQOzUr9SS3
+mBZvKvE0QW/ehQ71Ds0LFscuq8vnj3Kh2JFyV4FloJer5Xdfuv9m1z6Uh/ufSN/
sbLjokMPHyCeGyBLYq8VO1DfzvjjyiHVr/kwm06A4dc2f2bZBMKn+Cyfe6FVYK83
lfb/ibmlJdgF5KhJoxLmdjlm/H7KxZC8K3e63Ue4Te5RDB2dQDu1EvEPDfoI+AtU
b+eICpuugKx69rhpTqeD8AAANJhFAgMBAAGjgc4wgcswDgYDVR0PAQH/BAQDAgWg
MAkGA1UdEwQCMAAwHQYDVR0lBBYwFAYIKwYBBQUHAwEGCCsGAQUFBwMCMB0GA1Ud
DgQWBBQOaMqyqupT5c27L00Irz4RkLvYIzAfBgNVHSMEGDAWgBQ8zneSEvUNVcVH
KB/kgZVmCGKdQTBPBgNVHREESDBGghF0cmFlZmlrLmxvY2FsaG9zdIINdGxzLmxv
Y2FsaG9zdIIObXRscy5sb2NhbGhvc3SCEmFwaS5tdGxzLmxvY2FsaG9zdDANBgkq
hkiG9w0BAQsFAAOCAgEARXCIg667qC4oEvBUeuM2cVAvkqmGEAz3GSCtxI24pgK3
Yicwc6ZAK5PKkbwvltuV2EUEYZaToQcKuocK2gMTLYGoO6reod+bv+EZ8oFOOLOT
UneFCznyMMJERvzwppQMfyF0MqB+gUbToETUP7WoPgv4hdHYTiPXreTkYfsxq/OO
ECtZ9zapKf5Y5Y+XH57ZCArjLV6FYlSAiPPKnnUWPfbCLzQyFdmuuFGDOM5kAeq5
22D/zS6ydSXiI82d9XOqrCi2WUTwtVyBySfh5XLzPpszMdGy5PcxqiZWDSm1Ycrb
03en4gwZjQIVYuK3xgSjMlcwKR56pRO/iC69QdEyX69w8gbtxtVnXIFvL8zrPY6l
CaNzLjoFtU9Aav8Re4ko+P3MG+lvFx1Y1OGU+SecN3acxH8DWs/9Q2yOwS5hM1Ic
RdR+mr6ONCVBnp1bNieGhLyVQlo1Ri/WY9Pp0lGM55agnPeE9YR6mXj/D1rmuUId
VWTFVmHkRLIfxySinynOKSpmvbW8ab981X5Yej71NGWTQHUb8IsPs8vjKxXCq1RI
tthheB/+ZjF03rZPmbOg21IWOYbZHGYrLOwa6ng9mVto7a7FVsvFh0N/gwthOUeC
yx/lH0QhSD1bsnCV5mFq1D8GYkzvdF+GzutLzC72kMtr0up7GuKqboDfX/pdGEU=
-----END CERTIFICATE-----
