Certificate:
    Data:
        Version: 3 (0x2)
        Serial Number: 2 (0x2)
        Signature Algorithm: sha256WithRSAEncryption
        Issuer: DC=fr, DC=ygaudin, DC=vahempio, O=Vahempio Inc, OU=Vahempio Root CA, CN=Vahempio PKI Root CA
        Validity
            Not Before: Mar 30 14:59:56 2021 GMT
            Not After : Mar 30 14:59:56 2031 GMT
        Subject: DC=fr, DC=ygaudin, DC=vahempio, O=Vahempio Inc, OU=Vahempio Signing CA, CN=Vahempio PKI Signing CA
        Subject Public Key Info:
            Public Key Algorithm: rsaEncryption
                RSA Public-Key: (4096 bit)
                Modulus:
                    00:ca:29:34:da:cd:72:89:6c:98:ce:fb:15:4e:fa:
                    5e:80:51:d8:33:e7:d0:d1:75:62:ef:a3:7d:bd:88:
                    e8:e1:02:90:a2:49:1c:f8:f5:52:30:37:8d:f7:cd:
                    0b:7a:55:f5:e3:4a:51:a9:a2:ed:cb:14:2b:af:fd:
                    50:38:79:12:79:ab:be:26:6f:67:f4:ee:39:6c:fc:
                    dd:33:a9:fc:d3:e5:d3:94:ba:65:ad:d4:9f:dd:2b:
                    18:11:83:56:28:54:95:f0:09:2c:9a:16:4e:37:13:
                    7d:42:7d:16:df:ce:02:e0:ba:62:0c:f4:bf:bd:1e:
                    be:ff:ea:fc:55:e6:86:f5:6d:51:66:46:bd:3b:79:
                    ed:99:07:5e:c7:98:e0:83:37:09:f4:1f:e7:aa:3e:
                    20:5c:10:79:21:c9:85:e3:3d:2b:ed:7b:e3:39:c6:
                    6d:62:c5:3f:2b:98:07:50:3e:d5:2f:fb:6a:58:ee:
                    d1:8f:da:23:77:2f:f1:46:f5:73:e5:07:f7:9b:4b:
                    4b:34:eb:14:07:52:b9:ca:83:7c:29:a7:84:d7:15:
                    44:a2:ab:da:41:44:41:b0:1e:67:83:c0:9d:44:33:
                    5f:b2:48:2d:ce:38:a4:d0:6b:69:87:ac:b0:db:87:
                    bf:45:08:76:94:ac:bc:e2:99:3e:93:7f:ce:ad:b4:
                    31:67:af:f3:e5:28:7f:66:35:51:d8:3d:0a:2d:34:
                    83:3e:f5:e6:38:16:f6:7c:e1:81:d3:96:47:61:49:
                    8b:dc:58:a9:99:08:c6:9c:0c:04:66:78:2c:7e:b9:
                    ab:7b:43:e4:c9:ec:f6:74:38:9b:7d:33:30:69:af:
                    b9:a8:be:a4:3c:40:ae:59:71:9d:15:dd:27:6f:e2:
                    dd:d4:ca:af:36:ca:3d:42:83:88:87:5a:d4:1c:44:
                    86:ce:0a:ee:e4:7c:0d:2c:64:8d:fb:51:72:56:47:
                    1e:44:1e:eb:10:87:45:75:94:1e:62:d8:22:ee:09:
                    74:07:f5:3d:41:b3:a3:45:55:91:40:fd:5d:16:d2:
                    bc:80:d3:c2:a4:48:91:21:fd:4c:75:69:f2:47:71:
                    73:bd:c4:da:1a:4f:1d:fc:98:23:f1:86:f3:80:31:
                    d9:5f:cd:a1:82:c6:bd:ce:66:bd:0f:42:5b:85:39:
                    33:83:19:aa:0b:a8:e0:c9:50:70:15:79:db:b7:ec:
                    cd:74:4d:e2:06:ff:8f:a6:e8:35:88:bd:d8:1e:f6:
                    99:48:b7:b8:37:0c:4e:0d:43:08:ea:be:5f:5d:6d:
                    76:62:8d:ac:48:70:e0:01:de:ce:19:d9:c9:41:99:
                    84:bc:50:dc:a8:33:53:1a:01:ad:1d:9e:23:13:10:
                    ba:d7:31
                Exponent: 65537 (0x10001)
        X509v3 extensions:
            X509v3 Key Usage: critical
                Certificate Sign, CRL Sign
            X509v3 Basic Constraints: critical
                CA:TRUE, pathlen:0
            X509v3 Subject Key Identifier: 
                3C:CE:77:92:12:F5:0D:55:C5:47:28:1F:E4:81:95:66:08:62:9D:41
            X509v3 Authority Key Identifier: 
                keyid:72:1E:E8:E7:64:FF:82:44:6C:62:2E:16:F9:82:C9:87:46:8C:B2:33

    Signature Algorithm: sha256WithRSAEncryption
         a9:c0:32:81:a9:87:41:80:84:52:96:d7:e5:de:dd:12:bf:b5:
         b7:88:58:67:8c:6e:5d:b4:4d:a5:54:20:ac:e4:5b:ac:53:cd:
         51:82:a8:27:69:0a:9b:36:6b:87:dd:a1:6b:61:ca:78:d1:86:
         5a:b8:74:78:0c:85:f6:2e:e8:57:6a:22:fc:de:b2:10:5b:ae:
         2e:78:40:60:57:ca:57:eb:aa:5a:5d:83:5d:f8:63:1f:de:37:
         5b:ea:05:3a:82:0c:81:fb:3f:32:26:f0:c4:b6:b2:6a:cc:69:
         9d:1b:99:02:24:52:b9:61:27:38:10:49:0a:9c:76:94:14:87:
         69:22:cb:a1:7d:c7:95:b6:08:01:0c:ef:78:50:ad:f2:d4:89:
         de:93:91:17:4b:e6:90:7d:c9:f9:c6:99:03:2a:26:73:ab:bf:
         b4:b3:cf:c2:a9:65:aa:0f:39:52:93:71:1d:6a:a9:5a:3a:6c:
         8a:4b:df:cc:61:e0:02:b6:31:ae:03:49:1b:b6:30:ea:0c:4a:
         66:bd:ff:18:62:fa:00:d3:d6:09:df:2f:c8:d2:90:fb:53:c9:
         47:a9:b0:df:13:55:8f:4d:a5:7e:15:ae:70:d2:fc:4c:b6:d0:
         5a:57:59:ae:fe:1c:54:ae:6a:8d:01:dd:b9:dd:6c:bb:a1:bc:
         d1:ad:2b:d1:8d:a8:81:88:e3:c2:cf:16:42:d1:d9:d9:09:f2:
         b2:f8:6b:a2:6f:7a:ac:62:6a:7f:99:bf:b2:ff:25:b8:71:b6:
         a0:ad:b8:3b:d2:75:00:88:db:ba:ad:0e:a5:cb:3a:16:22:03:
         c1:ad:de:aa:9d:3e:c6:ba:c4:d9:2c:aa:f7:9a:23:68:9b:64:
         46:c2:a5:83:f2:5f:6b:56:3f:8a:e5:e1:da:57:f8:c8:f1:92:
         ca:f7:8b:8a:ed:4d:46:13:cd:6a:4e:fd:6d:53:be:dc:a1:3b:
         c4:98:78:28:e7:cf:2f:c6:4f:c0:83:89:7f:eb:f6:e0:b8:1b:
         61:b0:df:a5:05:7d:a3:33:e5:33:2e:c2:82:37:45:fe:2b:66:
         80:5d:ca:c0:d8:1f:91:7d:1c:29:14:2d:91:1c:d7:31:f1:70:
         c6:5f:a2:1a:e7:0a:f9:99:9f:bd:81:fa:f7:6b:2d:a6:f4:71:
         7a:5f:5d:20:23:bf:f6:7a:62:80:f3:55:1f:78:dd:42:82:e7:
         3a:4d:2a:7d:14:d9:a3:fa:e0:bb:e1:6a:8b:59:90:8f:4a:5f:
         97:5f:53:18:c3:49:79:78:e4:18:b9:36:84:04:ef:ed:91:30:
         6a:15:d2:9b:d4:90:ca:29:52:7c:d1:81:a5:ba:4b:f9:77:28:
         18:1a:7a:f2:4c:0f:97:08
-----BEGIN CERTIFICATE-----
MIIGGTCCBAGgAwIBAgIBAjANBgkqhkiG9w0BAQsFADCBmDESMBAGCgmSJomT8ixk
ARkWAmZyMRcwFQYKCZImiZPyLGQBGRYHeWdhdWRpbjEYMBYGCgmSJomT8ixkARkW
CHZhaGVtcGlvMRUwEwYDVQQKDAxWYWhlbXBpbyBJbmMxGTAXBgNVBAsMEFZhaGVt
cGlvIFJvb3QgQ0ExHTAbBgNVBAMMFFZhaGVtcGlvIFBLSSBSb290IENBMB4XDTIx
MDMzMDE0NTk1NloXDTMxMDMzMDE0NTk1NlowgZ4xEjAQBgoJkiaJk/IsZAEZFgJm
cjEXMBUGCgmSJomT8ixkARkWB3lnYXVkaW4xGDAWBgoJkiaJk/IsZAEZFgh2YWhl
bXBpbzEVMBMGA1UECgwMVmFoZW1waW8gSW5jMRwwGgYDVQQLDBNWYWhlbXBpbyBT
aWduaW5nIENBMSAwHgYDVQQDDBdWYWhlbXBpbyBQS0kgU2lnbmluZyBDQTCCAiIw
DQYJKoZIhvcNAQEBBQADggIPADCCAgoCggIBAMopNNrNcolsmM77FU76XoBR2DPn
0NF1Yu+jfb2I6OECkKJJHPj1UjA3jffNC3pV9eNKUami7csUK6/9UDh5EnmrviZv
Z/TuOWz83TOp/NPl05S6Za3Un90rGBGDVihUlfAJLJoWTjcTfUJ9Ft/OAuC6Ygz0
v70evv/q/FXmhvVtUWZGvTt57ZkHXseY4IM3CfQf56o+IFwQeSHJheM9K+174znG
bWLFPyuYB1A+1S/7alju0Y/aI3cv8Ub1c+UH95tLSzTrFAdSucqDfCmnhNcVRKKr
2kFEQbAeZ4PAnUQzX7JILc44pNBraYessNuHv0UIdpSsvOKZPpN/zq20MWev8+Uo
f2Y1Udg9Ci00gz715jgW9nzhgdOWR2FJi9xYqZkIxpwMBGZ4LH65q3tD5Mns9nQ4
m30zMGmvuai+pDxArllxnRXdJ2/i3dTKrzbKPUKDiIda1BxEhs4K7uR8DSxkjftR
clZHHkQe6xCHRXWUHmLYIu4JdAf1PUGzo0VVkUD9XRbSvIDTwqRIkSH9THVp8kdx
c73E2hpPHfyYI/GG84Ax2V/NoYLGvc5mvQ9CW4U5M4MZqguo4MlQcBV527fszXRN
4gb/j6boNYi92B72mUi3uDcMTg1DCOq+X11tdmKNrEhw4AHezhnZyUGZhLxQ3Kgz
UxoBrR2eIxMQutcxAgMBAAGjZjBkMA4GA1UdDwEB/wQEAwIBBjASBgNVHRMBAf8E
CDAGAQH/AgEAMB0GA1UdDgQWBBQ8zneSEvUNVcVHKB/kgZVmCGKdQTAfBgNVHSME
GDAWgBRyHujnZP+CRGxiLhb5gsmHRoyyMzANBgkqhkiG9w0BAQsFAAOCAgEAqcAy
gamHQYCEUpbX5d7dEr+1t4hYZ4xuXbRNpVQgrORbrFPNUYKoJ2kKmzZrh92ha2HK
eNGGWrh0eAyF9i7oV2oi/N6yEFuuLnhAYFfKV+uqWl2DXfhjH943W+oFOoIMgfs/
MibwxLayasxpnRuZAiRSuWEnOBBJCpx2lBSHaSLLoX3HlbYIAQzveFCt8tSJ3pOR
F0vmkH3J+caZAyomc6u/tLPPwqllqg85UpNxHWqpWjpsikvfzGHgArYxrgNJG7Yw
6gxKZr3/GGL6ANPWCd8vyNKQ+1PJR6mw3xNVj02lfhWucNL8TLbQWldZrv4cVK5q
jQHdud1su6G80a0r0Y2ogYjjws8WQtHZ2Qnysvhrom96rGJqf5m/sv8luHG2oK24
O9J1AIjbuq0Opcs6FiIDwa3eqp0+xrrE2Syq95ojaJtkRsKlg/Jfa1Y/iuXh2lf4
yPGSyveLiu1NRhPNak79bVO+3KE7xJh4KOfPL8ZPwIOJf+v24LgbYbDfpQV9ozPl
My7CgjdF/itmgF3KwNgfkX0cKRQtkRzXMfFwxl+iGucK+ZmfvYH692stpvRxel9d
ICO/9npigPNVH3jdQoLnOk0qfRTZo/rgu+Fqi1mQj0pfl19TGMNJeXjkGLk2hATv
7ZEwahXSm9SQyilSfNGBpbpL+XcoGBp68kwPlwg=
-----END CERTIFICATE-----
